target datalayout = "e-m:e-p270:32:32-p271:32:32-p272:64:64-i64:64-i128:128-f80:128-n8:16:32:64-S128"
target triple = "x86_64-pc-linux-gnu"

%"struct.folly::CacheLocality" = type { i64, %"class.std::vector.220", %"class.std::vector.220", %"class.std::vector.301" }
%"class.std::vector.220" = type { %"struct.std::_Vector_base.221" }
%"struct.std::_Vector_base.221" = type { %"struct.std::_Vector_base<unsigned long, std::allocator<unsigned long>>::_Vector_impl" }
%"struct.std::_Vector_base<unsigned long, std::allocator<unsigned long>>::_Vector_impl" = type { %"struct.std::_Vector_base<unsigned long, std::allocator<unsigned long>>::_Vector_impl_data" }
%"struct.std::_Vector_base<unsigned long, std::allocator<unsigned long>>::_Vector_impl_data" = type { ptr, ptr, ptr }
%"class.std::vector.301" = type { %"struct.std::_Vector_base.302" }
%"struct.std::_Vector_base.302" = type { %"struct.std::_Vector_base<std::vector<unsigned long>, std::allocator<std::vector<unsigned long>>>::_Vector_impl" }
%"struct.std::_Vector_base<std::vector<unsigned long>, std::allocator<std::vector<unsigned long>>>::_Vector_impl" = type { %"struct.std::_Vector_base<std::vector<unsigned long>, std::allocator<std::vector<unsigned long>>>::_Vector_impl_data" }
%"struct.std::_Vector_base<std::vector<unsigned long>, std::allocator<std::vector<unsigned long>>>::_Vector_impl_data" = type { ptr, ptr, ptr }

@__dso_handle = external hidden global i8
@_ZZN5folly13CacheLocality6systemINS_4test19DeterministicAtomicEEERKS0_vE5cache = internal global %"struct.folly::CacheLocality" zeroinitializer, align 8
@_ZGVZN5folly13CacheLocality6systemINS_4test19DeterministicAtomicEEERKS0_vE5cache = internal global i64 0, align 8

; Function Attrs: mustprogress uwtable
define noundef nonnull align 8 dereferenceable(80) ptr @_ZN5folly13CacheLocality6systemINS_4test19DeterministicAtomicEEERKS0_v() #6 align 2 personality ptr @__gxx_personality_v0 {
  %1 = alloca ptr, align 8
  %2 = alloca i32, align 4
  %3 = load atomic i8, ptr @_ZGVZN5folly13CacheLocality6systemINS_4test19DeterministicAtomicEEERKS0_vE5cache acquire, align 8
  %4 = icmp eq i8 %3, 0
  br i1 %4, label %5, label %11, !prof !1205

5:                                                ; preds = %0
  %6 = call i32 @__cxa_guard_acquire(ptr @_ZGVZN5folly13CacheLocality6systemINS_4test19DeterministicAtomicEEERKS0_vE5cache) #2
  %7 = icmp ne i32 %6, 0
  br i1 %7, label %8, label %11

8:                                                ; preds = %5
  invoke void @_ZN5folly13CacheLocality7uniformEm(ptr dead_on_unwind writable sret(%"struct.folly::CacheLocality") align 8 @_ZZN5folly13CacheLocality6systemINS_4test19DeterministicAtomicEEERKS0_vE5cache, i64 noundef 16)
          to label %9 unwind label %12

9:                                                ; preds = %8
  %10 = call i32 @__cxa_atexit(ptr @_ZN5folly13CacheLocalityD2Ev, ptr @_ZZN5folly13CacheLocality6systemINS_4test19DeterministicAtomicEEERKS0_vE5cache, ptr @__dso_handle) #2
  call void @__cxa_guard_release(ptr @_ZGVZN5folly13CacheLocality6systemINS_4test19DeterministicAtomicEEERKS0_vE5cache) #2
  br label %11

11:                                               ; preds = %9, %5, %0
  ret ptr @_ZZN5folly13CacheLocality6systemINS_4test19DeterministicAtomicEEERKS0_vE5cache

12:                                               ; preds = %8
  %13 = landingpad { ptr, i32 }
          cleanup
  %14 = extractvalue { ptr, i32 } %13, 0
  store ptr %14, ptr %1, align 8
  %15 = extractvalue { ptr, i32 } %13, 1
  store i32 %15, ptr %2, align 4
  call void @__cxa_guard_abort(ptr @_ZGVZN5folly13CacheLocality6systemINS_4test19DeterministicAtomicEEERKS0_vE5cache) #2
  br label %16

16:                                               ; preds = %12
  %17 = load ptr, ptr %1, align 8
  %18 = load i32, ptr %2, align 4
  %19 = insertvalue { ptr, i32 } poison, ptr %17, 0
  %20 = insertvalue { ptr, i32 } %19, i32 %18, 1
  resume { ptr, i32 } %20
}