; Function Attrs: mustprogress uwtable
define noundef nonnull align 8 dereferenceable(80) ptr @_ZN5folly13CacheLocality6systemINS_4test19DeterministicAtomicEEERKS0_v() local_unnamed_addr #7 align 2 personality ptr @__gxx_personality_v0 {
  %1 = load atomic i8, ptr @_ZGVZN5folly13CacheLocality6systemINS_4test19DeterministicAtomicEEERKS0_vE5cache acquire, align 8
  %2 = icmp eq i8 %1, 0
  br i1 %2, label %3, label %8, !prof !451

3:                                                ; preds = %0
  %4 = tail call i32 @__cxa_guard_acquire(ptr nonnull @_ZGVZN5folly13CacheLocality6systemINS_4test19DeterministicAtomicEEERKS0_vE5cache) #18
  %.not = icmp eq i32 %4, 0
  br i1 %.not, label %8, label %5

5:                                                ; preds = %3
  invoke void @_ZN5folly13CacheLocality7uniformEm(ptr dead_on_unwind nonnull writable sret(%"struct.folly::CacheLocality") align 8 @_ZZN5folly13CacheLocality6systemINS_4test19DeterministicAtomicEEERKS0_vE5cache, i64 noundef 16)
          to label %6 unwind label %9

6:                                                ; preds = %5
  %7 = tail call i32 @__cxa_atexit(ptr nonnull @_ZN5folly13CacheLocalityD2Ev, ptr nonnull @_ZZN5folly13CacheLocality6systemINS_4test19DeterministicAtomicEEERKS0_vE5cache, ptr nonnull @__dso_handle) #18
  tail call void @__cxa_guard_release(ptr nonnull @_ZGVZN5folly13CacheLocality6systemINS_4test19DeterministicAtomicEEERKS0_vE5cache) #18
  br label %8

8:                                                ; preds = %6, %3, %0
  ret ptr @_ZZN5folly13CacheLocality6systemINS_4test19DeterministicAtomicEEERKS0_vE5cache

9:                                                ; preds = %5
  %10 = landingpad { ptr, i32 }
          cleanup
  tail call void @__cxa_guard_abort(ptr nonnull @_ZGVZN5folly13CacheLocality6systemINS_4test19DeterministicAtomicEEERKS0_vE5cache) #18
  resume { ptr, i32 } %10
}